; Function Attrs: mustprogress nounwind willreturn uwtable
define internal fastcc void @Bmc_ManBCoreAssignVar(ptr noundef readonly captures(none) %0, ptr noundef initializes((8, 12)) %1, i32 noundef %2, ptr noundef captures(none) %3) unnamed_addr #3 {
  %5 = getelementptr i8, ptr %3, i64 4
  %.val = load i32, ptr %5, align 4
  %6 = ashr i32 %.val, 1
  %7 = getelementptr inbounds nuw i8, ptr %1, i64 8
  store i32 %6, ptr %7, align 4
  %8 = getelementptr i8, ptr %0, i64 32
  %.val6 = load ptr, ptr %8, align 8
  %9 = ptrtoint ptr %1 to i64
  %10 = ptrtoint ptr %.val6 to i64
  %11 = sub i64 %9, %10
  %12 = sdiv exact i64 %11, 12
  %13 = trunc i64 %12 to i32
  %14 = load i32, ptr %5, align 4
  %15 = load i32, ptr %3, align 8
  %16 = icmp eq i32 %14, %15
  br i1 %16, label %17, label %.Vec_IntGrow.exit10_crit_edge.i

.Vec_IntGrow.exit10_crit_edge.i:                  ; preds = %4
  %.phi.trans.insert.i = getelementptr inbounds nuw i8, ptr %3, i64 8
  %.pre.i = load ptr, ptr %.phi.trans.insert.i, align 8
  br label %Vec_IntPush.exit

17:                                               ; preds = %4
  %18 = icmp slt i32 %14, 16
  br i1 %18, label %19, label %27

19:                                               ; preds = %17
  %20 = getelementptr inbounds nuw i8, ptr %3, i64 8
  %21 = load ptr, ptr %20, align 8
  %.not9.i.i = icmp eq ptr %21, null
  br i1 %.not9.i.i, label %24, label %22

22:                                               ; preds = %19
  %23 = tail call dereferenceable_or_null(64) ptr @realloc(ptr noundef nonnull %21, i64 noundef 64) #17
  br label %Vec_IntGrow.exit.i

24:                                               ; preds = %19
  %25 = tail call noalias dereferenceable_or_null(64) ptr @malloc(i64 noundef 64) #15
  br label %Vec_IntGrow.exit.i

Vec_IntGrow.exit.i:                               ; preds = %24, %22
  %26 = phi ptr [ %23, %22 ], [ %25, %24 ]
  store ptr %26, ptr %20, align 8
  store i32 16, ptr %3, align 8
  br label %Vec_IntPush.exit

27:                                               ; preds = %17
  %28 = shl nuw nsw i32 %14, 1
  %29 = getelementptr inbounds nuw i8, ptr %3, i64 8
  %30 = load ptr, ptr %29, align 8
  %.not9.i9.i = icmp eq ptr %30, null
  %31 = zext nneg i32 %28 to i64
  %32 = shl nuw nsw i64 %31, 2
  br i1 %.not9.i9.i, label %35, label %33

33:                                               ; preds = %27
  %34 = tail call ptr @realloc(ptr noundef nonnull %30, i64 noundef %32) #17
  br label %37

35:                                               ; preds = %27
  %36 = tail call noalias ptr @malloc(i64 noundef %32) #15
  br label %37

37:                                               ; preds = %35, %33
  %38 = phi ptr [ %34, %33 ], [ %36, %35 ]
  store ptr %38, ptr %29, align 8
  store i32 %28, ptr %3, align 8
  br label %Vec_IntPush.exit

Vec_IntPush.exit:                                 ; preds = %.Vec_IntGrow.exit10_crit_edge.i, %Vec_IntGrow.exit.i, %37
  %39 = phi ptr [ %.pre.i, %.Vec_IntGrow.exit10_crit_edge.i ], [ %38, %37 ], [ %26, %Vec_IntGrow.exit.i ]
  %40 = load i32, ptr %5, align 4
  %41 = add nsw i32 %40, 1
  store i32 %41, ptr %5, align 4
  %42 = sext i32 %40 to i64
  %43 = getelementptr inbounds i32, ptr %39, i64 %42
  store i32 %13, ptr %43, align 4
  %44 = load i32, ptr %5, align 4
  %45 = load i32, ptr %3, align 8
  %46 = icmp eq i32 %44, %45
  br i1 %46, label %47, label %.Vec_IntGrow.exit10_crit_edge.i7

.Vec_IntGrow.exit10_crit_edge.i7:                 ; preds = %Vec_IntPush.exit
  %.phi.trans.insert.i8 = getelementptr inbounds nuw i8, ptr %3, i64 8
  %.pre.i9 = load ptr, ptr %.phi.trans.insert.i8, align 8
  br label %Vec_IntPush.exit13

47:                                               ; preds = %Vec_IntPush.exit
  %48 = icmp slt i32 %44, 16
  br i1 %48, label %49, label %57

49:                                               ; preds = %47
  %50 = getelementptr inbounds nuw i8, ptr %3, i64 8
  %51 = load ptr, ptr %50, align 8
  %.not9.i.i11 = icmp eq ptr %51, null
  br i1 %.not9.i.i11, label %54, label %52

52:                                               ; preds = %49
  %53 = tail call dereferenceable_or_null(64) ptr @realloc(ptr noundef nonnull %51, i64 noundef 64) #17
  br label %Vec_IntGrow.exit.i12

54:                                               ; preds = %49
  %55 = tail call noalias dereferenceable_or_null(64) ptr @malloc(i64 noundef 64) #15
  br label %Vec_IntGrow.exit.i12

Vec_IntGrow.exit.i12:                             ; preds = %54, %52
  %56 = phi ptr [ %53, %52 ], [ %55, %54 ]
  store ptr %56, ptr %50, align 8
  store i32 16, ptr %3, align 8
  br label %Vec_IntPush.exit13

57:                                               ; preds = %47
  %58 = shl nuw nsw i32 %44, 1
  %59 = getelementptr inbounds nuw i8, ptr %3, i64 8
  %60 = load ptr, ptr %59, align 8
  %.not9.i9.i10 = icmp eq ptr %60, null
  %61 = zext nneg i32 %58 to i64
  %62 = shl nuw nsw i64 %61, 2
  br i1 %.not9.i9.i10, label %65, label %63

63:                                               ; preds = %57
  %64 = tail call ptr @realloc(ptr noundef nonnull %60, i64 noundef %62) #17
  br label %67

65:                                               ; preds = %57
  %66 = tail call noalias ptr @malloc(i64 noundef %62) #15
  br label %67

67:                                               ; preds = %65, %63
  %68 = phi ptr [ %64, %63 ], [ %66, %65 ]
  store ptr %68, ptr %59, align 8
  store i32 %58, ptr %3, align 8
  br label %Vec_IntPush.exit13

Vec_IntPush.exit13:                               ; preds = %.Vec_IntGrow.exit10_crit_edge.i7, %Vec_IntGrow.exit.i12, %67
  %69 = phi ptr [ %.pre.i9, %.Vec_IntGrow.exit10_crit_edge.i7 ], [ %68, %67 ], [ %56, %Vec_IntGrow.exit.i12 ]
  %70 = load i32, ptr %5, align 4
  %71 = add nsw i32 %70, 1
  store i32 %71, ptr %5, align 4
  %72 = sext i32 %70 to i64
  %73 = getelementptr inbounds i32, ptr %69, i64 %72
  store i32 %2, ptr %73, align 4
  ret void
}